target datalayout = "e-m:e-p270:32:32-p271:32:32-p272:64:64-i64:64-i128:128-f80:128-n8:16:32:64-S128"
target triple = "x86_64-pc-linux-gnu"

%struct.stbvox_mesh_maker = type { %struct.stbvox_input_description, i32, i32, i32, i32, i32, i32, i32, i32, i32, i32, i32, i32, i32, i32, [6 x [4 x i32]], [6 x [4 x i32]], i32, i32, i32, i32, [2 x [3 x ptr]], [2 x [3 x ptr]], [2 x [3 x ptr]], [2 x [3 x i32]], [2 x [3 x i32]], [2 x [3 x i32]], i32, [128 x [2 x float]] }
%struct.stbvox_input_description = type { i8, ptr, ptr, ptr, ptr, ptr, ptr, ptr, ptr, ptr, ptr, ptr, ptr, ptr, ptr, ptr, ptr, ptr, ptr, ptr, ptr, ptr, ptr, ptr, ptr, ptr, ptr, ptr, ptr, ptr, ptr, ptr, ptr, ptr, ptr, ptr, ptr, ptr, ptr, ptr, ptr, ptr, ptr }

; Function Attrs: nounwind uwtable
define void @stbvox_bring_up_to_date(ptr noundef %0) #0 {
  %2 = alloca ptr, align 8
  %3 = alloca i32, align 4
  store ptr %0, ptr %2, align 8, !tbaa !20
  %4 = load ptr, ptr %2, align 8, !tbaa !20
  %5 = getelementptr inbounds nuw %struct.stbvox_mesh_maker, ptr %4, i32 0, i32 12
  %6 = load i32, ptr %5, align 4, !tbaa !102
  %7 = icmp ne i32 %6, 0
  br i1 %7, label %8, label %33

8:                                                ; preds = %1
  call void @llvm.lifetime.start.p0(i64 4, ptr %3) #4
  %9 = load ptr, ptr %2, align 8, !tbaa !20
  %10 = getelementptr inbounds nuw %struct.stbvox_mesh_maker, ptr %9, i32 0, i32 27
  store i32 1, ptr %10, align 8, !tbaa !103
  store i32 0, ptr %3, align 4, !tbaa !3
  br label %11

11:                                               ; preds = %27, %8
  %12 = load i32, ptr %3, align 4, !tbaa !3
  %13 = icmp slt i32 %12, 2
  br i1 %13, label %14, label %30

14:                                               ; preds = %11
  %15 = load ptr, ptr %2, align 8, !tbaa !20
  %16 = getelementptr inbounds nuw %struct.stbvox_mesh_maker, ptr %15, i32 0, i32 25
  %17 = load i32, ptr %3, align 4, !tbaa !3
  %18 = sext i32 %17 to i64
  %19 = getelementptr inbounds [2 x [3 x i32]], ptr %16, i64 0, i64 %18
  %20 = getelementptr inbounds [3 x i32], ptr %19, i64 0, i64 0
  store i32 32, ptr %20, align 4, !tbaa !3
  %21 = load ptr, ptr %2, align 8, !tbaa !20
  %22 = getelementptr inbounds nuw %struct.stbvox_mesh_maker, ptr %21, i32 0, i32 26
  %23 = load i32, ptr %3, align 4, !tbaa !3
  %24 = sext i32 %23 to i64
  %25 = getelementptr inbounds [2 x [3 x i32]], ptr %22, i64 0, i64 %24
  %26 = getelementptr inbounds [3 x i32], ptr %25, i64 0, i64 0
  store i32 8, ptr %26, align 4, !tbaa !3
  br label %27

27:                                               ; preds = %14
  %28 = load i32, ptr %3, align 4, !tbaa !3
  %29 = add nsw i32 %28, 1
  store i32 %29, ptr %3, align 4, !tbaa !3
  br label %11, !llvm.loop !104

30:                                               ; preds = %11
  %31 = load ptr, ptr %2, align 8, !tbaa !20
  %32 = getelementptr inbounds nuw %struct.stbvox_mesh_maker, ptr %31, i32 0, i32 12
  store i32 0, ptr %32, align 4, !tbaa !102
  call void @llvm.lifetime.end.p0(i64 4, ptr %3) #4
  br label %33

33:                                               ; preds = %30, %1
  ret void
}

; Function Attrs: nounwind uwtable
define i32 @stbvox_make_mesh(ptr noundef %0) #0 {
  %2 = alloca i32, align 4
  %3 = alloca ptr, align 8
  %4 = alloca i32, align 4
  %5 = alloca i32, align 4
  %6 = alloca i32, align 4
  store ptr %0, ptr %3, align 8, !tbaa !20
  call void @llvm.lifetime.start.p0(i64 4, ptr %4) #4
  call void @llvm.lifetime.start.p0(i64 4, ptr %5) #4
  %7 = load ptr, ptr %3, align 8, !tbaa !20
  call void @stbvox_bring_up_to_date(ptr noundef %7)
  %8 = load ptr, ptr %3, align 8, !tbaa !20
  %9 = getelementptr inbounds nuw %struct.stbvox_mesh_maker, ptr %8, i32 0, i32 20
  store i32 0, ptr %9, align 4, !tbaa !83
  %10 = load ptr, ptr %3, align 8, !tbaa !20
  %11 = getelementptr inbounds nuw %struct.stbvox_mesh_maker, ptr %10, i32 0, i32 1
  %12 = load i32, ptr %11, align 8, !tbaa !105
  %13 = load ptr, ptr %3, align 8, !tbaa !20
  %14 = getelementptr inbounds nuw %struct.stbvox_mesh_maker, ptr %13, i32 0, i32 4
  %15 = load i32, ptr %14, align 4, !tbaa !106
  %16 = icmp sgt i32 %12, %15
  br i1 %16, label %33, label %17

17:                                               ; preds = %1
  %18 = load ptr, ptr %3, align 8, !tbaa !20
  %19 = getelementptr inbounds nuw %struct.stbvox_mesh_maker, ptr %18, i32 0, i32 2
  %20 = load i32, ptr %19, align 4, !tbaa !107
  %21 = load ptr, ptr %3, align 8, !tbaa !20
  %22 = getelementptr inbounds nuw %struct.stbvox_mesh_maker, ptr %21, i32 0, i32 5
  %23 = load i32, ptr %22, align 8, !tbaa !108
  %24 = icmp sgt i32 %20, %23
  br i1 %24, label %33, label %25

25:                                               ; preds = %17
  %26 = load ptr, ptr %3, align 8, !tbaa !20
  %27 = getelementptr inbounds nuw %struct.stbvox_mesh_maker, ptr %26, i32 0, i32 3
  %28 = load i32, ptr %27, align 8, !tbaa !98
  %29 = load ptr, ptr %3, align 8, !tbaa !20
  %30 = getelementptr inbounds nuw %struct.stbvox_mesh_maker, ptr %29, i32 0, i32 6
  %31 = load i32, ptr %30, align 4, !tbaa !109
  %32 = icmp sgt i32 %28, %31
  br i1 %32, label %33, label %96

33:                                               ; preds = %25, %17, %1
  %34 = load ptr, ptr %3, align 8, !tbaa !20
  %35 = load ptr, ptr %3, align 8, !tbaa !20
  %36 = getelementptr inbounds nuw %struct.stbvox_mesh_maker, ptr %35, i32 0, i32 1
  %37 = load i32, ptr %36, align 8, !tbaa !105
  %38 = load ptr, ptr %3, align 8, !tbaa !20
  %39 = getelementptr inbounds nuw %struct.stbvox_mesh_maker, ptr %38, i32 0, i32 2
  %40 = load i32, ptr %39, align 4, !tbaa !107
  %41 = load ptr, ptr %3, align 8, !tbaa !20
  %42 = getelementptr inbounds nuw %struct.stbvox_mesh_maker, ptr %41, i32 0, i32 3
  %43 = load i32, ptr %42, align 8, !tbaa !98
  call void @stbvox_make_mesh_for_column(ptr noundef %34, i32 noundef %37, i32 noundef %40, i32 noundef %43)
  %44 = load ptr, ptr %3, align 8, !tbaa !20
  %45 = getelementptr inbounds nuw %struct.stbvox_mesh_maker, ptr %44, i32 0, i32 20
  %46 = load i32, ptr %45, align 4, !tbaa !83
  %47 = icmp ne i32 %46, 0
  br i1 %47, label %48, label %49

48:                                               ; preds = %33
  store i32 0, ptr %2, align 4
  store i32 1, ptr %6, align 4
  br label %143

49:                                               ; preds = %33
  %50 = load ptr, ptr %3, align 8, !tbaa !20
  %51 = getelementptr inbounds nuw %struct.stbvox_mesh_maker, ptr %50, i32 0, i32 2
  %52 = load i32, ptr %51, align 4, !tbaa !107
  %53 = add nsw i32 %52, 1
  store i32 %53, ptr %51, align 4, !tbaa !107
  br label %54

54:                                               ; preds = %86, %49
  %55 = load ptr, ptr %3, align 8, !tbaa !20
  %56 = getelementptr inbounds nuw %struct.stbvox_mesh_maker, ptr %55, i32 0, i32 2
  %57 = load i32, ptr %56, align 4, !tbaa !107
  %58 = load ptr, ptr %3, align 8, !tbaa !20
  %59 = getelementptr inbounds nuw %struct.stbvox_mesh_maker, ptr %58, i32 0, i32 8
  %60 = load i32, ptr %59, align 4, !tbaa !110
  %61 = icmp slt i32 %57, %60
  br i1 %61, label %62, label %68

62:                                               ; preds = %54
  %63 = load ptr, ptr %3, align 8, !tbaa !20
  %64 = getelementptr inbounds nuw %struct.stbvox_mesh_maker, ptr %63, i32 0, i32 20
  %65 = load i32, ptr %64, align 4, !tbaa !83
  %66 = icmp ne i32 %65, 0
  %67 = xor i1 %66, true
  br label %68

68:                                               ; preds = %62, %54
  %69 = phi i1 [ false, %54 ], [ %67, %62 ]
  br i1 %69, label %70, label %91

70:                                               ; preds = %68
  %71 = load ptr, ptr %3, align 8, !tbaa !20
  %72 = load ptr, ptr %3, align 8, !tbaa !20
  %73 = getelementptr inbounds nuw %struct.stbvox_mesh_maker, ptr %72, i32 0, i32 1
  %74 = load i32, ptr %73, align 8, !tbaa !105
  %75 = load ptr, ptr %3, align 8, !tbaa !20
  %76 = getelementptr inbounds nuw %struct.stbvox_mesh_maker, ptr %75, i32 0, i32 2
  %77 = load i32, ptr %76, align 4, !tbaa !107
  %78 = load ptr, ptr %3, align 8, !tbaa !20
  %79 = getelementptr inbounds nuw %struct.stbvox_mesh_maker, ptr %78, i32 0, i32 6
  %80 = load i32, ptr %79, align 4, !tbaa !109
  call void @stbvox_make_mesh_for_column(ptr noundef %71, i32 noundef %74, i32 noundef %77, i32 noundef %80)
  %81 = load ptr, ptr %3, align 8, !tbaa !20
  %82 = getelementptr inbounds nuw %struct.stbvox_mesh_maker, ptr %81, i32 0, i32 20
  %83 = load i32, ptr %82, align 4, !tbaa !83
  %84 = icmp ne i32 %83, 0
  br i1 %84, label %85, label %86

85:                                               ; preds = %70
  store i32 0, ptr %2, align 4
  store i32 1, ptr %6, align 4
  br label %143

86:                                               ; preds = %70
  %87 = load ptr, ptr %3, align 8, !tbaa !20
  %88 = getelementptr inbounds nuw %struct.stbvox_mesh_maker, ptr %87, i32 0, i32 2
  %89 = load i32, ptr %88, align 4, !tbaa !107
  %90 = add nsw i32 %89, 1
  store i32 %90, ptr %88, align 4, !tbaa !107
  br label %54, !llvm.loop !111

91:                                               ; preds = %68
  %92 = load ptr, ptr %3, align 8, !tbaa !20
  %93 = getelementptr inbounds nuw %struct.stbvox_mesh_maker, ptr %92, i32 0, i32 1
  %94 = load i32, ptr %93, align 8, !tbaa !105
  %95 = add nsw i32 %94, 1
  store i32 %95, ptr %93, align 8, !tbaa !105
  br label %96

96:                                               ; preds = %91, %25
  %97 = load ptr, ptr %3, align 8, !tbaa !20
  %98 = getelementptr inbounds nuw %struct.stbvox_mesh_maker, ptr %97, i32 0, i32 1
  %99 = load i32, ptr %98, align 8, !tbaa !105
  store i32 %99, ptr %4, align 4, !tbaa !3
  br label %100

100:                                              ; preds = %139, %96
  %101 = load i32, ptr %4, align 4, !tbaa !3
  %102 = load ptr, ptr %3, align 8, !tbaa !20
  %103 = getelementptr inbounds nuw %struct.stbvox_mesh_maker, ptr %102, i32 0, i32 7
  %104 = load i32, ptr %103, align 8, !tbaa !112
  %105 = icmp slt i32 %101, %104
  br i1 %105, label %106, label %142

106:                                              ; preds = %100
  %107 = load ptr, ptr %3, align 8, !tbaa !20
  %108 = getelementptr inbounds nuw %struct.stbvox_mesh_maker, ptr %107, i32 0, i32 5
  %109 = load i32, ptr %108, align 8, !tbaa !108
  store i32 %109, ptr %5, align 4, !tbaa !3
  br label %110

110:                                              ; preds = %135, %106
  %111 = load i32, ptr %5, align 4, !tbaa !3
  %112 = load ptr, ptr %3, align 8, !tbaa !20
  %113 = getelementptr inbounds nuw %struct.stbvox_mesh_maker, ptr %112, i32 0, i32 8
  %114 = load i32, ptr %113, align 4, !tbaa !110
  %115 = icmp slt i32 %111, %114
  br i1 %115, label %116, label %138

116:                                              ; preds = %110
  %117 = load ptr, ptr %3, align 8, !tbaa !20
  %118 = load i32, ptr %4, align 4, !tbaa !3
  %119 = load i32, ptr %5, align 4, !tbaa !3
  %120 = load ptr, ptr %3, align 8, !tbaa !20
  %121 = getelementptr inbounds nuw %struct.stbvox_mesh_maker, ptr %120, i32 0, i32 6
  %122 = load i32, ptr %121, align 4, !tbaa !109
  call void @stbvox_make_mesh_for_column(ptr noundef %117, i32 noundef %118, i32 noundef %119, i32 noundef %122)
  %123 = load ptr, ptr %3, align 8, !tbaa !20
  %124 = getelementptr inbounds nuw %struct.stbvox_mesh_maker, ptr %123, i32 0, i32 20
  %125 = load i32, ptr %124, align 4, !tbaa !83
  %126 = icmp ne i32 %125, 0
  br i1 %126, label %127, label %134

127:                                              ; preds = %116
  %128 = load i32, ptr %4, align 4, !tbaa !3
  %129 = load ptr, ptr %3, align 8, !tbaa !20
  %130 = getelementptr inbounds nuw %struct.stbvox_mesh_maker, ptr %129, i32 0, i32 1
  store i32 %128, ptr %130, align 8, !tbaa !105
  %131 = load i32, ptr %5, align 4, !tbaa !3
  %132 = load ptr, ptr %3, align 8, !tbaa !20
  %133 = getelementptr inbounds nuw %struct.stbvox_mesh_maker, ptr %132, i32 0, i32 2
  store i32 %131, ptr %133, align 4, !tbaa !107
  store i32 0, ptr %2, align 4
  store i32 1, ptr %6, align 4
  br label %143

134:                                              ; preds = %116
  br label %135

135:                                              ; preds = %134
  %136 = load i32, ptr %5, align 4, !tbaa !3
  %137 = add nsw i32 %136, 1
  store i32 %137, ptr %5, align 4, !tbaa !3
  br label %110, !llvm.loop !113

138:                                              ; preds = %110
  br label %139

139:                                              ; preds = %138
  %140 = load i32, ptr %4, align 4, !tbaa !3
  %141 = add nsw i32 %140, 1
  store i32 %141, ptr %4, align 4, !tbaa !3
  br label %100, !llvm.loop !114

142:                                              ; preds = %100
  store i32 1, ptr %2, align 4
  store i32 1, ptr %6, align 4
  br label %143

143:                                              ; preds = %142, %127, %85, %48
  call void @llvm.lifetime.end.p0(i64 4, ptr %5) #4
  call void @llvm.lifetime.end.p0(i64 4, ptr %4) #4
  %144 = load i32, ptr %2, align 4
  ret i32 %144
}