; Function Attrs: nofree norecurse nosync nounwind memory(readwrite, inaccessiblemem: none) uwtable
define range(i32 0, 2) i32 @stbvox_make_mesh(ptr noundef initializes((604, 608)) %0) local_unnamed_addr #8 {
  %2 = getelementptr inbounds nuw i8, ptr %0, i64 388
  %3 = load i32, ptr %2, align 4, !tbaa !86
  %.not.i = icmp eq i32 %3, 0
  br i1 %.not.i, label %stbvox_bring_up_to_date.exit, label %.critedge48

.critedge48:                                      ; preds = %1
  %4 = getelementptr inbounds nuw i8, ptr %0, i64 824
  store i32 1, ptr %4, align 8, !tbaa !87
  %5 = getelementptr inbounds nuw i8, ptr %0, i64 776
  %6 = getelementptr inbounds nuw i8, ptr %0, i64 800
  store i32 32, ptr %5, align 4, !tbaa !14
  store i32 8, ptr %6, align 4, !tbaa !14
  %7 = getelementptr inbounds nuw i8, ptr %0, i64 788
  store i32 32, ptr %7, align 4, !tbaa !14
  %8 = getelementptr inbounds nuw i8, ptr %0, i64 812
  store i32 8, ptr %8, align 4, !tbaa !14
  store i32 0, ptr %2, align 4, !tbaa !86
  br label %stbvox_bring_up_to_date.exit

stbvox_bring_up_to_date.exit:                     ; preds = %1, %.critedge48
  %9 = getelementptr inbounds nuw i8, ptr %0, i64 604
  store i32 0, ptr %9, align 4, !tbaa !67
  %10 = getelementptr inbounds nuw i8, ptr %0, i64 344
  %11 = load i32, ptr %10, align 8, !tbaa !88
  %12 = getelementptr inbounds nuw i8, ptr %0, i64 356
  %13 = load i32, ptr %12, align 4, !tbaa !89
  %14 = icmp sgt i32 %11, %13
  %.phi.trans.insert = getelementptr inbounds nuw i8, ptr %0, i64 348
  %.pre = load i32, ptr %.phi.trans.insert, align 4, !tbaa !90
  br i1 %14, label %stbvox_bring_up_to_date.exit._crit_edge, label %15

15:                                               ; preds = %stbvox_bring_up_to_date.exit
  %16 = getelementptr inbounds nuw i8, ptr %0, i64 360
  %17 = load i32, ptr %16, align 8, !tbaa !91
  %18 = icmp sgt i32 %.pre, %17
  br i1 %18, label %stbvox_bring_up_to_date.exit._crit_edge, label %19

19:                                               ; preds = %15
  %20 = getelementptr inbounds nuw i8, ptr %0, i64 352
  %21 = load i32, ptr %20, align 8, !tbaa !85
  %22 = getelementptr inbounds nuw i8, ptr %0, i64 364
  %23 = load i32, ptr %22, align 4, !tbaa !92
  %24 = icmp sgt i32 %21, %23
  br i1 %24, label %stbvox_bring_up_to_date.exit._crit_edge, label %39

stbvox_bring_up_to_date.exit._crit_edge:          ; preds = %stbvox_bring_up_to_date.exit, %19, %15
  %25 = getelementptr inbounds nuw i8, ptr %0, i64 348
  %26 = getelementptr inbounds nuw i8, ptr %0, i64 352
  %27 = load i32, ptr %26, align 8, !tbaa !85
  tail call void @stbvox_make_mesh_for_column(ptr noundef nonnull %0, i32 noundef %11, i32 noundef %.pre, i32 noundef %27)
  %28 = load i32, ptr %9, align 4, !tbaa !67
  %.not = icmp eq i32 %28, 0
  br i1 %.not, label %.preheader, label %.loopexit

.preheader:                                       ; preds = %stbvox_bring_up_to_date.exit._crit_edge
  %29 = getelementptr inbounds nuw i8, ptr %0, i64 372
  %30 = getelementptr inbounds nuw i8, ptr %0, i64 364
  br label %31

31:                                               ; preds = %.preheader, %35
  %storemerge.in = load i32, ptr %25, align 4, !tbaa !90
  %storemerge = add nsw i32 %storemerge.in, 1
  store i32 %storemerge, ptr %25, align 4, !tbaa !90
  %32 = load i32, ptr %29, align 4, !tbaa !93
  %33 = icmp slt i32 %storemerge, %32
  %34 = load i32, ptr %10, align 8, !tbaa !88
  br i1 %33, label %35, label %.critedge

35:                                               ; preds = %31
  %36 = load i32, ptr %30, align 4, !tbaa !92
  tail call void @stbvox_make_mesh_for_column(ptr noundef nonnull %0, i32 noundef %34, i32 noundef %storemerge, i32 noundef %36)
  %37 = load i32, ptr %9, align 4, !tbaa !67
  %.not46 = icmp eq i32 %37, 0
  br i1 %.not46, label %31, label %.loopexit, !llvm.loop !94

.critedge:                                        ; preds = %31
  %38 = add nsw i32 %34, 1
  store i32 %38, ptr %10, align 8, !tbaa !88
  br label %39

39:                                               ; preds = %.critedge, %19
  %40 = phi i32 [ %38, %.critedge ], [ %11, %19 ]
  %41 = getelementptr inbounds nuw i8, ptr %0, i64 368
  %42 = load i32, ptr %41, align 8, !tbaa !95
  %43 = icmp slt i32 %40, %42
  br i1 %43, label %.lr.ph55, label %.loopexit

.lr.ph55:                                         ; preds = %39
  %44 = getelementptr inbounds nuw i8, ptr %0, i64 360
  %45 = getelementptr inbounds nuw i8, ptr %0, i64 372
  %46 = getelementptr inbounds nuw i8, ptr %0, i64 364
  %47 = load i32, ptr %44, align 8, !tbaa !91
  %48 = load i32, ptr %45, align 4, !tbaa !93
  %49 = icmp slt i32 %47, %48
  br i1 %49, label %.lr.ph55.split, label %.loopexit

.lr.ph55.split:                                   ; preds = %.lr.ph55, %._crit_edge
  %50 = phi i32 [ %62, %._crit_edge ], [ %42, %.lr.ph55 ]
  %51 = phi i32 [ %63, %._crit_edge ], [ %48, %.lr.ph55 ]
  %.04153 = phi i32 [ %64, %._crit_edge ], [ %40, %.lr.ph55 ]
  %52 = load i32, ptr %44, align 8, !tbaa !91
  %53 = icmp slt i32 %52, %51
  br i1 %53, label %.lr.ph, label %._crit_edge

.lr.ph:                                           ; preds = %.lr.ph55.split, %58
  %.052 = phi i32 [ %59, %58 ], [ %52, %.lr.ph55.split ]
  %54 = load i32, ptr %46, align 4, !tbaa !92
  tail call void @stbvox_make_mesh_for_column(ptr noundef nonnull %0, i32 noundef %.04153, i32 noundef %.052, i32 noundef %54)
  %55 = load i32, ptr %9, align 4, !tbaa !67
  %.not45 = icmp eq i32 %55, 0
  br i1 %.not45, label %58, label %56

56:                                               ; preds = %.lr.ph
  store i32 %.04153, ptr %10, align 8, !tbaa !88
  %57 = getelementptr inbounds nuw i8, ptr %0, i64 348
  store i32 %.052, ptr %57, align 4, !tbaa !90
  br label %.loopexit

58:                                               ; preds = %.lr.ph
  %59 = add nsw i32 %.052, 1
  %60 = load i32, ptr %45, align 4, !tbaa !93
  %61 = icmp slt i32 %59, %60
  br i1 %61, label %.lr.ph, label %._crit_edge.loopexit, !llvm.loop !96

._crit_edge.loopexit:                             ; preds = %58
  %.pre60 = load i32, ptr %41, align 8, !tbaa !95
  br label %._crit_edge

._crit_edge:                                      ; preds = %._crit_edge.loopexit, %.lr.ph55.split
  %62 = phi i32 [ %.pre60, %._crit_edge.loopexit ], [ %50, %.lr.ph55.split ]
  %63 = phi i32 [ %60, %._crit_edge.loopexit ], [ %51, %.lr.ph55.split ]
  %64 = add nsw i32 %.04153, 1
  %65 = icmp slt i32 %64, %62
  br i1 %65, label %.lr.ph55.split, label %.loopexit, !llvm.loop !97

.loopexit:                                        ; preds = %35, %._crit_edge, %.lr.ph55, %39, %stbvox_bring_up_to_date.exit._crit_edge, %56
  %.042 = phi i32 [ 0, %56 ], [ 0, %stbvox_bring_up_to_date.exit._crit_edge ], [ 1, %39 ], [ 1, %.lr.ph55 ], [ 1, %._crit_edge ], [ 0, %35 ]
  ret i32 %.042
}